target datalayout = "e-m:e-p270:32:32-p271:32:32-p272:64:64-i64:64-i128:128-f80:128-n8:16:32:64-S128"
target triple = "x86_64-pc-linux-gnu"

%"class.std::__cxx11::basic_string" = type { %"struct.std::__cxx11::basic_string<char>::_Alloc_hider", i64, %union.anon }
%"struct.std::__cxx11::basic_string<char>::_Alloc_hider" = type { ptr }
%union.anon = type { i64, [8 x i8] }
%struct.t_dlist = type { [12 x i8], i32, %"class.std::__cxx11::basic_string", [9 x i32], %struct.t_dihatms, [9 x i32], [9 x i32], [9 x float], [9 x [4 x float]] }
%struct.t_dihatms = type { i32, i32, i32, i32, i32, i32, i32, [9 x i32] }
%"class.gmx::ArrayRef.5" = type { %"struct.gmx::ArrayRefIter.6", %"struct.gmx::ArrayRefIter.6" }
%"struct.gmx::ArrayRefIter.6" = type { ptr }

; Function Attrs: mustprogress nounwind uwtable
define linkonce_odr noundef nonnull align 8 dereferenceable(400) ptr @_ZNK3gmx12ArrayRefIterIK7t_dlistEdeEv(ptr noundef nonnull align 8 dereferenceable(8) %0) #4 comdat align 2 {
  %2 = alloca ptr, align 8
  store ptr %0, ptr %2, align 8, !tbaa !136
  %3 = load ptr, ptr %2, align 8
  %4 = getelementptr inbounds nuw %"struct.gmx::ArrayRefIter.6", ptr %3, i32 0, i32 0
  %5 = load ptr, ptr %4, align 8, !tbaa !138
  ret ptr %5
}

; Function Attrs: mustprogress nounwind uwtable
define linkonce_odr noundef nonnull align 8 dereferenceable(8) ptr @_ZN3gmx12ArrayRefIterIK7t_dlistEpLEl(ptr noundef nonnull align 8 dereferenceable(8) %0, i64 noundef %1) #4 comdat align 2 {
  %3 = alloca ptr, align 8
  %4 = alloca i64, align 8
  store ptr %0, ptr %3, align 8, !tbaa !136
  store i64 %1, ptr %4, align 8, !tbaa !32
  %5 = load ptr, ptr %3, align 8
  %6 = load i64, ptr %4, align 8, !tbaa !32
  %7 = getelementptr inbounds nuw %"struct.gmx::ArrayRefIter.6", ptr %5, i32 0, i32 0
  %8 = load ptr, ptr %7, align 8, !tbaa !138
  %9 = getelementptr inbounds %struct.t_dlist, ptr %8, i64 %6
  store ptr %9, ptr %7, align 8, !tbaa !138
  ret ptr %5
}

; Function Attrs: mustprogress nounwind uwtable
define linkonce_odr noundef nonnull align 8 dereferenceable(8) ptr @_ZNK3gmx5boost14stl_interfaces2v118iterator_interfaceINS_12ArrayRefIterIK7t_dlistEESt26random_access_iterator_tagS6_RS6_PS6_lvE7derivedEv(ptr noundef nonnull align 1 dereferenceable(1) %0) #4 comdat align 2 {
  %2 = alloca ptr, align 8
  store ptr %0, ptr %2, align 8, !tbaa !140
  %3 = load ptr, ptr %2, align 8
  ret ptr %3
}

; Function Attrs: mustprogress nounwind uwtable
define linkonce_odr noundef nonnull align 8 dereferenceable(400) ptr @_ZNK3gmx5boost14stl_interfaces2v118iterator_interfaceINS_12ArrayRefIterIK7t_dlistEESt26random_access_iterator_tagS6_RS6_PS6_lvEixIS7_EEDTcmpLclsr3stdE7declvalIRT_EEfp_declsr3stdE7declvalISE_EEEl(ptr noundef nonnull align 1 dereferenceable(1) %0, i64 noundef %1) #4 comdat align 2 {
  %3 = alloca ptr, align 8
  %4 = alloca i64, align 8
  %5 = alloca %"struct.gmx::ArrayRefIter.6", align 8
  store ptr %0, ptr %3, align 8, !tbaa !140
  store i64 %1, ptr %4, align 8, !tbaa !32
  %6 = load ptr, ptr %3, align 8
  call void @llvm.lifetime.start.p0(i64 8, ptr %5) #17
  %7 = call noundef nonnull align 8 dereferenceable(8) ptr @_ZNK3gmx5boost14stl_interfaces2v118iterator_interfaceINS_12ArrayRefIterIK7t_dlistEESt26random_access_iterator_tagS6_RS6_PS6_lvE7derivedEv(ptr noundef nonnull align 1 dereferenceable(1) %6) #17
  call void @llvm.memcpy.p0.p0.i64(ptr align 8 %5, ptr align 8 %7, i64 8, i1 false)
  %8 = load i64, ptr %4, align 8, !tbaa !32
  %9 = call noundef nonnull align 8 dereferenceable(8) ptr @_ZN3gmx12ArrayRefIterIK7t_dlistEpLEl(ptr noundef nonnull align 8 dereferenceable(8) %5, i64 noundef %8) #17
  %10 = call noundef nonnull align 8 dereferenceable(400) ptr @_ZNK3gmx12ArrayRefIterIK7t_dlistEdeEv(ptr noundef nonnull align 8 dereferenceable(8) %5) #17
  call void @llvm.lifetime.end.p0(i64 8, ptr %5) #17
  ret ptr %10
}

; Function Attrs: mustprogress nounwind uwtable
define linkonce_odr noundef i64 @_ZNK3gmx12ArrayRefIterIK7t_dlistEmiES3_(ptr noundef nonnull align 8 dereferenceable(8) %0, ptr %1) #4 comdat align 2 {
  %3 = alloca %"struct.gmx::ArrayRefIter.6", align 8
  %4 = alloca ptr, align 8
  %5 = getelementptr inbounds nuw %"struct.gmx::ArrayRefIter.6", ptr %3, i32 0, i32 0
  store ptr %1, ptr %5, align 8
  store ptr %0, ptr %4, align 8, !tbaa !136
  %6 = load ptr, ptr %4, align 8
  %7 = getelementptr inbounds nuw %"struct.gmx::ArrayRefIter.6", ptr %6, i32 0, i32 0
  %8 = load ptr, ptr %7, align 8, !tbaa !138
  %9 = getelementptr inbounds nuw %"struct.gmx::ArrayRefIter.6", ptr %3, i32 0, i32 0
  %10 = load ptr, ptr %9, align 8, !tbaa !138
  %11 = ptrtoint ptr %8 to i64
  %12 = ptrtoint ptr %10 to i64
  %13 = sub i64 %11, %12
  %14 = sdiv exact i64 %13, 400
  ret i64 %14
}

; Function Attrs: mustprogress nounwind uwtable
define linkonce_odr noundef nonnull align 8 dereferenceable(400) ptr @_ZNK3gmx8ArrayRefIK7t_dlistEixEm(ptr noundef nonnull align 8 dereferenceable(16) %0, i64 noundef %1) #4 comdat align 2 {
  %3 = alloca ptr, align 8
  %4 = alloca i64, align 8
  store ptr %0, ptr %3, align 8, !tbaa !132
  store i64 %1, ptr %4, align 8, !tbaa !32
  %5 = load ptr, ptr %3, align 8
  %6 = getelementptr inbounds nuw %"class.gmx::ArrayRef.5", ptr %5, i32 0, i32 0
  %7 = load i64, ptr %4, align 8, !tbaa !32
  %8 = call noundef nonnull align 8 dereferenceable(400) ptr @_ZNK3gmx5boost14stl_interfaces2v118iterator_interfaceINS_12ArrayRefIterIK7t_dlistEESt26random_access_iterator_tagS6_RS6_PS6_lvEixIS7_EEDTcmpLclsr3stdE7declvalIRT_EEfp_declsr3stdE7declvalISE_EEEl(ptr noundef nonnull align 1 dereferenceable(1) %6, i64 noundef %7) #17
  ret ptr %8
}

; Function Attrs: mustprogress nounwind uwtable
define linkonce_odr noundef i64 @_ZNK3gmx8ArrayRefIK7t_dlistE4sizeEv(ptr noundef nonnull align 8 dereferenceable(16) %0) #4 comdat align 2 {
  %2 = alloca ptr, align 8
  %3 = alloca %"struct.gmx::ArrayRefIter.6", align 8
  store ptr %0, ptr %2, align 8, !tbaa !132
  %4 = load ptr, ptr %2, align 8
  %5 = getelementptr inbounds nuw %"class.gmx::ArrayRef.5", ptr %4, i32 0, i32 1
  %6 = getelementptr inbounds nuw %"class.gmx::ArrayRef.5", ptr %4, i32 0, i32 0
  call void @llvm.memcpy.p0.p0.i64(ptr align 8 %3, ptr align 8 %6, i64 8, i1 false)
  %7 = getelementptr inbounds nuw %"struct.gmx::ArrayRefIter.6", ptr %3, i32 0, i32 0
  %8 = load ptr, ptr %7, align 8
  %9 = call noundef i64 @_ZNK3gmx12ArrayRefIterIK7t_dlistEmiES3_(ptr noundef nonnull align 8 dereferenceable(8) %5, ptr %8) #17
  ret i64 %9
}

; Function Attrs: mustprogress uwtable
define void @_Z13mk_chi_lookupPPiiN3gmx8ArrayRefIK7t_dlistEE(ptr noundef %0, i32 noundef %1, ptr %2, ptr %3) #0 {
  %5 = alloca %"class.gmx::ArrayRef.5", align 8
  %6 = alloca ptr, align 8
  %7 = alloca i32, align 4
  %8 = alloca i32, align 4
  %9 = alloca i32, align 4
  %10 = alloca i32, align 4
  %11 = alloca i64, align 8
  %12 = alloca i32, align 4
  %13 = getelementptr inbounds nuw { ptr, ptr }, ptr %5, i32 0, i32 0
  store ptr %2, ptr %13, align 8
  %14 = getelementptr inbounds nuw { ptr, ptr }, ptr %5, i32 0, i32 1
  store ptr %3, ptr %14, align 8
  store ptr %0, ptr %6, align 8, !tbaa !91
  store i32 %1, ptr %7, align 4, !tbaa !11
  call void @llvm.lifetime.start.p0(i64 4, ptr %8) #17
  store i32 0, ptr %8, align 4, !tbaa !11
  call void @llvm.lifetime.start.p0(i64 4, ptr %9) #17
  store i32 3, ptr %9, align 4, !tbaa !11
  br label %15

15:                                               ; preds = %82, %4
  %16 = load i32, ptr %9, align 4, !tbaa !11
  %17 = load i32, ptr %7, align 4, !tbaa !11
  %18 = add nsw i32 3, %17
  %19 = icmp slt i32 %16, %18
  br i1 %19, label %21, label %20

20:                                               ; preds = %15
  store i32 2, ptr %10, align 4
  call void @llvm.lifetime.end.p0(i64 4, ptr %9) #17
  br label %85

21:                                               ; preds = %15
  call void @llvm.lifetime.start.p0(i64 8, ptr %11) #17
  store i64 0, ptr %11, align 8, !tbaa !32
  br label %22

22:                                               ; preds = %78, %21
  %23 = load i64, ptr %11, align 8, !tbaa !32
  %24 = call noundef i64 @_ZNK3gmx8ArrayRefIK7t_dlistE4sizeEv(ptr noundef nonnull align 8 dereferenceable(16) %5)
  %25 = icmp ult i64 %23, %24
  br i1 %25, label %27, label %26

26:                                               ; preds = %22
  store i32 5, ptr %10, align 4
  call void @llvm.lifetime.end.p0(i64 8, ptr %11) #17
  br label %81

27:                                               ; preds = %22
  call void @llvm.lifetime.start.p0(i64 4, ptr %12) #17
  %28 = load i32, ptr %9, align 4, !tbaa !11
  %29 = sub nsw i32 %28, 3
  store i32 %29, ptr %12, align 4, !tbaa !11
  %30 = load i32, ptr %9, align 4, !tbaa !11
  %31 = icmp slt i32 %30, 2
  br i1 %31, label %54, label %32

32:                                               ; preds = %27
  %33 = load i32, ptr %9, align 4, !tbaa !11
  %34 = icmp eq i32 %33, 2
  br i1 %34, label %35, label %39

35:                                               ; preds = %32
  %36 = load i64, ptr %11, align 8, !tbaa !32
  %37 = call noundef nonnull align 8 dereferenceable(400) ptr @_ZNK3gmx8ArrayRefIK7t_dlistEixEm(ptr noundef nonnull align 8 dereferenceable(16) %5, i64 noundef %36)
  %38 = call noundef zeroext i1 @_Z12has_dihedraliRK7t_dlist(i32 noundef 2, ptr noundef nonnull align 8 dereferenceable(400) %37)
  br i1 %38, label %54, label %39

39:                                               ; preds = %35, %32
  %40 = load i32, ptr %9, align 4, !tbaa !11
  %41 = icmp sgt i32 %40, 2
  br i1 %41, label %42, label %69

42:                                               ; preds = %39
  %43 = load i64, ptr %11, align 8, !tbaa !32
  %44 = call noundef nonnull align 8 dereferenceable(400) ptr @_ZNK3gmx8ArrayRefIK7t_dlistEixEm(ptr noundef nonnull align 8 dereferenceable(16) %5, i64 noundef %43)
  %45 = getelementptr inbounds nuw %struct.t_dlist, ptr %44, i32 0, i32 4
  %46 = getelementptr inbounds nuw %struct.t_dihatms, ptr %45, i32 0, i32 7
  %47 = load i32, ptr %9, align 4, !tbaa !11
  %48 = sub nsw i32 %47, 3
  %49 = add nsw i32 %48, 3
  %50 = sext i32 %49 to i64
  %51 = getelementptr inbounds [9 x i32], ptr %46, i64 0, i64 %50
  %52 = load i32, ptr %51, align 4, !tbaa !11
  %53 = icmp ne i32 %52, -1
  br i1 %53, label %54, label %69

54:                                               ; preds = %42, %35, %27
  %55 = load i32, ptr %9, align 4, !tbaa !11
  %56 = icmp sgt i32 %55, 2
  br i1 %56, label %57, label %66

57:                                               ; preds = %54
  %58 = load i32, ptr %8, align 4, !tbaa !11
  %59 = load ptr, ptr %6, align 8, !tbaa !91
  %60 = load i64, ptr %11, align 8, !tbaa !32
  %61 = getelementptr inbounds nuw ptr, ptr %59, i64 %60
  %62 = load ptr, ptr %61, align 8, !tbaa !80
  %63 = load i32, ptr %12, align 4, !tbaa !11
  %64 = sext i32 %63 to i64
  %65 = getelementptr inbounds i32, ptr %62, i64 %64
  store i32 %58, ptr %65, align 4, !tbaa !11
  br label %66

66:                                               ; preds = %57, %54
  %67 = load i32, ptr %8, align 4, !tbaa !11
  %68 = add nsw i32 %67, 1
  store i32 %68, ptr %8, align 4, !tbaa !11
  br label %77

69:                                               ; preds = %42, %39
  %70 = load ptr, ptr %6, align 8, !tbaa !91
  %71 = load i64, ptr %11, align 8, !tbaa !32
  %72 = getelementptr inbounds nuw ptr, ptr %70, i64 %71
  %73 = load ptr, ptr %72, align 8, !tbaa !80
  %74 = load i32, ptr %12, align 4, !tbaa !11
  %75 = sext i32 %74 to i64
  %76 = getelementptr inbounds i32, ptr %73, i64 %75
  store i32 -1, ptr %76, align 4, !tbaa !11
  br label %77

77:                                               ; preds = %69, %66
  call void @llvm.lifetime.end.p0(i64 4, ptr %12) #17
  br label %78

78:                                               ; preds = %77
  %79 = load i64, ptr %11, align 8, !tbaa !32
  %80 = add i64 %79, 1
  store i64 %80, ptr %11, align 8, !tbaa !32
  br label %22, !llvm.loop !142

81:                                               ; preds = %26
  br label %82

82:                                               ; preds = %81
  %83 = load i32, ptr %9, align 4, !tbaa !11
  %84 = add nsw i32 %83, 1
  store i32 %84, ptr %9, align 4, !tbaa !11
  br label %15, !llvm.loop !143

85:                                               ; preds = %20
  call void @llvm.lifetime.end.p0(i64 4, ptr %8) #17
  ret void
}